target datalayout = "e-m:e-p270:32:32-p271:32:32-p272:64:64-i64:64-i128:128-f80:128-n8:16:32:64-S128"
target triple = "x86_64-pc-linux-gnu"

%class.Metadata = type { ptr }
%class.OopHandle = type { ptr }
%class.AccessFlags = type { i32 }
%class.ResourceHashtableNode = type { i32, ptr, i8, ptr }
%class.ResourceHashtableBase = type <{ %class.FixedResourceHashtableStorage, i32, [4 x i8] }>
%class.FixedResourceHashtableStorage = type { [15889 x ptr] }
%class.InstanceKlass = type { %class.Klass.base, ptr, ptr, ptr, ptr, ptr, ptr, ptr, ptr, ptr, ptr, i32, i32, i32, i32, i16, i16, i16, i16, i8, i8, i8, i8, %class.InstanceKlassFlags, ptr, ptr, ptr, ptr, ptr, i64, ptr, ptr, ptr, ptr, ptr, ptr, ptr, ptr, ptr, ptr, ptr, ptr, ptr }
%class.Klass.base = type <{ %class.Metadata, i32, i32, i32, i32, ptr, ptr, ptr, [8 x ptr], %class.OopHandle, ptr, ptr, ptr, ptr, ptr, i32, %class.AccessFlags, i64, i64, i8, i8, i16, i16, [2 x i8], i32 }>
%class.InstanceKlassFlags = type <{ i16, i8, i8 }>
%class.Array = type { i32, [1 x ptr] }
%class.anon.45 = type { i8 }

@_ZN14ClassPrelinker11_vm_classesE = hidden global ptr null, align 8

; Function Attrs: mustprogress nounwind uwtable
define linkonce_odr hidden noundef ptr @_ZNK29FixedResourceHashtableStorageILj15889EP13InstanceKlassbE5tableEv(ptr noundef nonnull align 8 dereferenceable(127112) %0) #1 comdat align 2 {
  %2 = alloca ptr, align 8
  store ptr %0, ptr %2, align 8
  %3 = load ptr, ptr %2, align 8
  %4 = getelementptr inbounds %class.FixedResourceHashtableStorage, ptr %3, i32 0, i32 0
  %5 = getelementptr inbounds [15889 x ptr], ptr %4, i64 0, i64 0
  ret ptr %5
}

; Function Attrs: mustprogress nounwind uwtable
define linkonce_odr hidden noundef i64 @_ZZN5ArrayIP13InstanceKlassE20base_offset_in_bytesEvENKUlvE_clEv(ptr noundef nonnull align 1 dereferenceable(1) %0) #1 comdat align 2 {
  %2 = alloca ptr, align 8
  %3 = alloca [16 x i8], align 16
  %4 = alloca ptr, align 8
  %5 = alloca ptr, align 8
  store ptr %0, ptr %2, align 8
  %6 = getelementptr inbounds [16 x i8], ptr %3, i64 0, i64 0
  store ptr %6, ptr %4, align 8
  %7 = load ptr, ptr %4, align 8
  %8 = getelementptr inbounds %class.Array, ptr %7, i32 0, i32 1
  store ptr %8, ptr %5, align 8
  %9 = load ptr, ptr %5, align 8
  %10 = getelementptr inbounds [16 x i8], ptr %3, i64 0, i64 0
  %11 = ptrtoint ptr %9 to i64
  %12 = ptrtoint ptr %10 to i64
  %13 = sub i64 %11, %12
  ret i64 %13
}

; Function Attrs: mustprogress nounwind uwtable
define linkonce_odr hidden noundef ptr @_ZNK21ResourceHashtableBaseI29FixedResourceHashtableStorageILj15889EP13InstanceKlassbES2_bLN6AnyObj15allocation_typeE2EL8MEMFLAGS13EXadL_Z14primitive_hashIS2_EjRKT_EEXadL_Z16primitive_equalsIS2_EbSA_SA_EEE5tableEv(ptr noundef nonnull align 8 dereferenceable(127116) %0) #1 comdat align 2 {
  %2 = alloca ptr, align 8
  store ptr %0, ptr %2, align 8
  %3 = load ptr, ptr %2, align 8
  %4 = call noundef ptr @_ZNK29FixedResourceHashtableStorageILj15889EP13InstanceKlassbE5tableEv(ptr noundef nonnull align 8 dereferenceable(127112) %3)
  ret ptr %4
}

; Function Attrs: mustprogress nounwind uwtable
define linkonce_odr hidden noundef i32 @_ZNK29FixedResourceHashtableStorageILj15889EP13InstanceKlassbE10table_sizeEv(ptr noundef nonnull align 8 dereferenceable(127112) %0) #1 comdat align 2 {
  %2 = alloca ptr, align 8
  store ptr %0, ptr %2, align 8
  ret i32 15889
}

; Function Attrs: mustprogress nounwind uwtable
define linkonce_odr hidden noundef i32 @_ZN5ArrayIP13InstanceKlassE20base_offset_in_bytesEv() #1 comdat align 2 {
  %1 = alloca %class.anon.45, align 1
  %2 = call noundef i64 @_ZZN5ArrayIP13InstanceKlassE20base_offset_in_bytesEvENKUlvE_clEv(ptr noundef nonnull align 1 dereferenceable(1) %1)
  %3 = trunc i64 %2 to i32
  ret i32 %3
}

; Function Attrs: mustprogress nounwind uwtable
define linkonce_odr hidden noundef zeroext i1 @_Z16primitive_equalsIP13InstanceKlassEbRKT_S4_(ptr noundef nonnull align 8 dereferenceable(8) %0, ptr noundef nonnull align 8 dereferenceable(8) %1) #1 comdat {
  %3 = alloca ptr, align 8
  %4 = alloca ptr, align 8
  store ptr %0, ptr %3, align 8
  store ptr %1, ptr %4, align 8
  %5 = load ptr, ptr %3, align 8
  %6 = load ptr, ptr %5, align 8
  %7 = load ptr, ptr %4, align 8
  %8 = load ptr, ptr %7, align 8
  %9 = icmp eq ptr %6, %8
  ret i1 %9
}

; Function Attrs: mustprogress nounwind uwtable
define linkonce_odr hidden noundef ptr @_ZN21ResourceHashtableBaseI29FixedResourceHashtableStorageILj15889EP13InstanceKlassbES2_bLN6AnyObj15allocation_typeE2EL8MEMFLAGS13EXadL_Z14primitive_hashIS2_EjRKT_EEXadL_Z16primitive_equalsIS2_EbSA_SA_EEE9bucket_atEj(ptr noundef nonnull align 8 dereferenceable(127116) %0, i32 noundef %1) #1 comdat align 2 {
  %3 = alloca ptr, align 8
  %4 = alloca i32, align 4
  %5 = alloca ptr, align 8
  store ptr %0, ptr %3, align 8
  store i32 %1, ptr %4, align 4
  %6 = load ptr, ptr %3, align 8
  %7 = call noundef ptr @_ZNK21ResourceHashtableBaseI29FixedResourceHashtableStorageILj15889EP13InstanceKlassbES2_bLN6AnyObj15allocation_typeE2EL8MEMFLAGS13EXadL_Z14primitive_hashIS2_EjRKT_EEXadL_Z16primitive_equalsIS2_EbSA_SA_EEE5tableEv(ptr noundef nonnull align 8 dereferenceable(127116) %6)
  store ptr %7, ptr %5, align 8
  %8 = load ptr, ptr %5, align 8
  %9 = load i32, ptr %4, align 4
  %10 = zext i32 %9 to i64
  %11 = getelementptr inbounds ptr, ptr %8, i64 %10
  ret ptr %11
}

; Function Attrs: mustprogress nounwind uwtable
define linkonce_odr hidden noundef i32 @_ZNK21ResourceHashtableBaseI29FixedResourceHashtableStorageILj15889EP13InstanceKlassbES2_bLN6AnyObj15allocation_typeE2EL8MEMFLAGS13EXadL_Z14primitive_hashIS2_EjRKT_EEXadL_Z16primitive_equalsIS2_EbSA_SA_EEE10table_sizeEv(ptr noundef nonnull align 8 dereferenceable(127116) %0) #1 comdat align 2 {
  %2 = alloca ptr, align 8
  store ptr %0, ptr %2, align 8
  %3 = load ptr, ptr %2, align 8
  %4 = call noundef i32 @_ZNK29FixedResourceHashtableStorageILj15889EP13InstanceKlassbE10table_sizeEv(ptr noundef nonnull align 8 dereferenceable(127112) %3)
  ret i32 %4
}

; Function Attrs: mustprogress nounwind uwtable
define linkonce_odr hidden noundef ptr @_ZNK5ArrayIP13InstanceKlassE4dataEv(ptr noundef nonnull align 8 dereferenceable(16) %0) #1 comdat align 2 {
  %2 = alloca ptr, align 8
  store ptr %0, ptr %2, align 8
  %3 = load ptr, ptr %2, align 8
  %4 = call noundef i32 @_ZN5ArrayIP13InstanceKlassE20base_offset_in_bytesEv()
  %5 = sext i32 %4 to i64
  %6 = getelementptr inbounds i8, ptr %3, i64 %5
  ret ptr %6
}

; Function Attrs: mustprogress nounwind uwtable
define linkonce_odr hidden void @_ZN21ResourceHashtableNodeIP13InstanceKlassbEC2EjRKS1_PS2_(ptr noundef nonnull align 8 dereferenceable(32) %0, i32 noundef %1, ptr noundef nonnull align 8 dereferenceable(8) %2, ptr noundef %3) unnamed_addr #1 comdat align 2 {
  %5 = alloca ptr, align 8
  %6 = alloca i32, align 4
  %7 = alloca ptr, align 8
  %8 = alloca ptr, align 8
  store ptr %0, ptr %5, align 8
  store i32 %1, ptr %6, align 4
  store ptr %2, ptr %7, align 8
  store ptr %3, ptr %8, align 8
  %9 = load ptr, ptr %5, align 8
  %10 = getelementptr inbounds %class.ResourceHashtableNode, ptr %9, i32 0, i32 0
  %11 = load i32, ptr %6, align 4
  store i32 %11, ptr %10, align 8
  %12 = getelementptr inbounds %class.ResourceHashtableNode, ptr %9, i32 0, i32 1
  %13 = load ptr, ptr %7, align 8
  %14 = load ptr, ptr %13, align 8
  store ptr %14, ptr %12, align 8
  %15 = getelementptr inbounds %class.ResourceHashtableNode, ptr %9, i32 0, i32 2
  store i8 0, ptr %15, align 8
  %16 = getelementptr inbounds %class.ResourceHashtableNode, ptr %9, i32 0, i32 3
  %17 = load ptr, ptr %8, align 8
  store ptr %17, ptr %16, align 8
  ret void
}

; Function Attrs: mustprogress nounwind uwtable
define linkonce_odr hidden noundef ptr @_ZN21ResourceHashtableBaseI29FixedResourceHashtableStorageILj15889EP13InstanceKlassbES2_bLN6AnyObj15allocation_typeE2EL8MEMFLAGS13EXadL_Z14primitive_hashIS2_EjRKT_EEXadL_Z16primitive_equalsIS2_EbSA_SA_EEE11lookup_nodeEjRKS2_(ptr noundef nonnull align 8 dereferenceable(127116) %0, i32 noundef %1, ptr noundef nonnull align 8 dereferenceable(8) %2) #1 comdat align 2 {
  %4 = alloca ptr, align 8
  %5 = alloca i32, align 4
  %6 = alloca ptr, align 8
  %7 = alloca i32, align 4
  %8 = alloca ptr, align 8
  %9 = alloca ptr, align 8
  store ptr %0, ptr %4, align 8
  store i32 %1, ptr %5, align 4
  store ptr %2, ptr %6, align 8
  %10 = load ptr, ptr %4, align 8
  %11 = load i32, ptr %5, align 4
  %12 = call noundef i32 @_ZNK21ResourceHashtableBaseI29FixedResourceHashtableStorageILj15889EP13InstanceKlassbES2_bLN6AnyObj15allocation_typeE2EL8MEMFLAGS13EXadL_Z14primitive_hashIS2_EjRKT_EEXadL_Z16primitive_equalsIS2_EbSA_SA_EEE10table_sizeEv(ptr noundef nonnull align 8 dereferenceable(127116) %10)
  %13 = urem i32 %11, %12
  store i32 %13, ptr %7, align 4
  %14 = load i32, ptr %7, align 4
  %15 = call noundef ptr @_ZN21ResourceHashtableBaseI29FixedResourceHashtableStorageILj15889EP13InstanceKlassbES2_bLN6AnyObj15allocation_typeE2EL8MEMFLAGS13EXadL_Z14primitive_hashIS2_EjRKT_EEXadL_Z16primitive_equalsIS2_EbSA_SA_EEE9bucket_atEj(ptr noundef nonnull align 8 dereferenceable(127116) %10, i32 noundef %14)
  store ptr %15, ptr %8, align 8
  br label %16

16:                                               ; preds = %34, %3
  %17 = load ptr, ptr %8, align 8
  %18 = load ptr, ptr %17, align 8
  %19 = icmp ne ptr %18, null
  br i1 %19, label %20, label %37

20:                                               ; preds = %16
  %21 = load ptr, ptr %8, align 8
  %22 = load ptr, ptr %21, align 8
  store ptr %22, ptr %9, align 8
  %23 = load ptr, ptr %9, align 8
  %24 = getelementptr inbounds %class.ResourceHashtableNode, ptr %23, i32 0, i32 0
  %25 = load i32, ptr %24, align 8
  %26 = load i32, ptr %5, align 4
  %27 = icmp eq i32 %25, %26
  br i1 %27, label %28, label %34

28:                                               ; preds = %20
  %29 = load ptr, ptr %6, align 8
  %30 = load ptr, ptr %9, align 8
  %31 = getelementptr inbounds %class.ResourceHashtableNode, ptr %30, i32 0, i32 1
  %32 = call noundef zeroext i1 @_Z16primitive_equalsIP13InstanceKlassEbRKT_S4_(ptr noundef nonnull align 8 dereferenceable(8) %29, ptr noundef nonnull align 8 dereferenceable(8) %31)
  br i1 %32, label %33, label %34

33:                                               ; preds = %28
  br label %37

34:                                               ; preds = %28, %20
  %35 = load ptr, ptr %9, align 8
  %36 = getelementptr inbounds %class.ResourceHashtableNode, ptr %35, i32 0, i32 3
  store ptr %36, ptr %8, align 8
  br label %16, !llvm.loop !21

37:                                               ; preds = %33, %16
  %38 = load ptr, ptr %8, align 8
  ret ptr %38
}

; Function Attrs: mustprogress nounwind uwtable
define linkonce_odr hidden noundef i32 @_Z14primitive_hashIP13InstanceKlassEjRKT_(ptr noundef nonnull align 8 dereferenceable(8) %0) #1 comdat {
  %2 = alloca ptr, align 8
  %3 = alloca i32, align 4
  store ptr %0, ptr %2, align 8
  %4 = load ptr, ptr %2, align 8
  %5 = load ptr, ptr %4, align 8
  %6 = ptrtoint ptr %5 to i64
  %7 = trunc i64 %6 to i32
  store i32 %7, ptr %3, align 4
  %8 = load i32, ptr %3, align 4
  %9 = load i32, ptr %3, align 4
  %10 = lshr i32 %9, 3
  %11 = xor i32 %8, %10
  ret i32 %11
}

; Function Attrs: mustprogress nounwind uwtable
define linkonce_odr hidden noundef ptr @_ZNK5ArrayIP13InstanceKlassE2atEi(ptr noundef nonnull align 8 dereferenceable(16) %0, i32 noundef %1) #1 comdat align 2 {
  %3 = alloca ptr, align 8
  %4 = alloca i32, align 4
  store ptr %0, ptr %3, align 8
  store i32 %1, ptr %4, align 4
  %5 = load ptr, ptr %3, align 8
  %6 = call noundef ptr @_ZNK5ArrayIP13InstanceKlassE4dataEv(ptr noundef nonnull align 8 dereferenceable(16) %5)
  %7 = load i32, ptr %4, align 4
  %8 = sext i32 %7 to i64
  %9 = getelementptr inbounds ptr, ptr %6, i64 %8
  %10 = load ptr, ptr %9, align 8
  ret ptr %10
}

; Function Attrs: mustprogress nounwind uwtable
define linkonce_odr hidden noundef i32 @_ZNK5ArrayIP13InstanceKlassE6lengthEv(ptr noundef nonnull align 8 dereferenceable(16) %0) #1 comdat align 2 {
  %2 = alloca ptr, align 8
  store ptr %0, ptr %2, align 8
  %3 = load ptr, ptr %2, align 8
  %4 = getelementptr inbounds %class.Array, ptr %3, i32 0, i32 0
  %5 = load i32, ptr %4, align 8
  ret i32 %5
}

; Function Attrs: mustprogress nounwind uwtable
define linkonce_odr hidden noundef ptr @_ZNK13InstanceKlass16local_interfacesEv(ptr noundef nonnull align 8 dereferenceable(464) %0) #1 comdat align 2 {
  %2 = alloca ptr, align 8
  store ptr %0, ptr %2, align 8
  %3 = load ptr, ptr %2, align 8
  %4 = getelementptr inbounds %class.InstanceKlass, ptr %3, i32 0, i32 37
  %5 = load ptr, ptr %4, align 8
  ret ptr %5
}

; Function Attrs: mustprogress nounwind uwtable
define linkonce_odr hidden noundef ptr @_ZN21ResourceHashtableBaseI29FixedResourceHashtableStorageILj15889EP13InstanceKlassbES2_bLN6AnyObj15allocation_typeE2EL8MEMFLAGS13EXadL_Z14primitive_hashIS2_EjRKT_EEXadL_Z16primitive_equalsIS2_EbSA_SA_EEE13put_if_absentERKS2_Pb(ptr noundef nonnull align 8 dereferenceable(127116) %0, ptr noundef nonnull align 8 dereferenceable(8) %1, ptr noundef %2) #1 comdat align 2 {
  %4 = alloca ptr, align 8
  %5 = alloca ptr, align 8
  %6 = alloca ptr, align 8
  %7 = alloca i32, align 4
  %8 = alloca ptr, align 8
  store ptr %0, ptr %4, align 8
  store ptr %1, ptr %5, align 8
  store ptr %2, ptr %6, align 8
  %9 = load ptr, ptr %4, align 8
  %10 = load ptr, ptr %5, align 8
  %11 = call noundef i32 @_Z14primitive_hashIP13InstanceKlassEjRKT_(ptr noundef nonnull align 8 dereferenceable(8) %10)
  store i32 %11, ptr %7, align 4
  %12 = load i32, ptr %7, align 4
  %13 = load ptr, ptr %5, align 8
  %14 = call noundef ptr @_ZN21ResourceHashtableBaseI29FixedResourceHashtableStorageILj15889EP13InstanceKlassbES2_bLN6AnyObj15allocation_typeE2EL8MEMFLAGS13EXadL_Z14primitive_hashIS2_EjRKT_EEXadL_Z16primitive_equalsIS2_EbSA_SA_EEE11lookup_nodeEjRKS2_(ptr noundef nonnull align 8 dereferenceable(127116) %9, i32 noundef %12, ptr noundef nonnull align 8 dereferenceable(8) %13)
  store ptr %14, ptr %8, align 8
  %15 = load ptr, ptr %8, align 8
  %16 = load ptr, ptr %15, align 8
  %17 = icmp eq ptr %16, null
  br i1 %17, label %18, label %31

18:                                               ; preds = %3
  %19 = call noundef ptr @_ZN6AnyObjnwEm8MEMFLAGS(i64 noundef 32, i8 noundef zeroext 13) #9
  %20 = icmp eq ptr %19, null
  br i1 %20, label %24, label %21

21:                                               ; preds = %18
  %22 = load i32, ptr %7, align 4
  %23 = load ptr, ptr %5, align 8
  call void @_ZN21ResourceHashtableNodeIP13InstanceKlassbEC2EjRKS1_PS2_(ptr noundef nonnull align 8 dereferenceable(32) %19, i32 noundef %22, ptr noundef nonnull align 8 dereferenceable(8) %23, ptr noundef null)
  br label %24

24:                                               ; preds = %21, %18
  %25 = phi ptr [ %19, %21 ], [ null, %18 ]
  %26 = load ptr, ptr %8, align 8
  store ptr %25, ptr %26, align 8
  %27 = load ptr, ptr %6, align 8
  store i8 1, ptr %27, align 1
  %28 = getelementptr inbounds %class.ResourceHashtableBase, ptr %9, i32 0, i32 1
  %29 = load i32, ptr %28, align 8
  %30 = add nsw i32 %29, 1
  store i32 %30, ptr %28, align 8
  br label %33

31:                                               ; preds = %3
  %32 = load ptr, ptr %6, align 8
  store i8 0, ptr %32, align 1
  br label %33

33:                                               ; preds = %31, %24
  %34 = load ptr, ptr %8, align 8
  %35 = load ptr, ptr %34, align 8
  %36 = getelementptr inbounds %class.ResourceHashtableNode, ptr %35, i32 0, i32 2
  ret ptr %36
}

; Function Attrs: mustprogress nounwind uwtable
define hidden void @_ZN14ClassPrelinker16add_one_vm_classEP13InstanceKlass(ptr noundef %0) #1 align 2 {
  %2 = alloca ptr, align 8
  %3 = alloca i8, align 1
  %4 = alloca ptr, align 8
  %5 = alloca ptr, align 8
  %6 = alloca i32, align 4
  store ptr %0, ptr %2, align 8
  %7 = load ptr, ptr @_ZN14ClassPrelinker11_vm_classesE, align 8
  %8 = call noundef ptr @_ZN21ResourceHashtableBaseI29FixedResourceHashtableStorageILj15889EP13InstanceKlassbES2_bLN6AnyObj15allocation_typeE2EL8MEMFLAGS13EXadL_Z14primitive_hashIS2_EjRKT_EEXadL_Z16primitive_equalsIS2_EbSA_SA_EEE13put_if_absentERKS2_Pb(ptr noundef nonnull align 8 dereferenceable(127116) %7, ptr noundef nonnull align 8 dereferenceable(8) %2, ptr noundef %3)
  %9 = load i8, ptr %3, align 1
  %10 = trunc i8 %9 to i1
  br i1 %10, label %11, label %37

11:                                               ; preds = %1
  %12 = load ptr, ptr %2, align 8
  %13 = load ptr, ptr %12, align 8
  %14 = getelementptr inbounds ptr, ptr %13, i64 15
  %15 = load ptr, ptr %14, align 8
  %16 = call noundef ptr %15(ptr noundef nonnull align 8 dereferenceable(464) %12)
  store ptr %16, ptr %4, align 8
  %17 = load ptr, ptr %4, align 8
  %18 = icmp ne ptr %17, null
  br i1 %18, label %19, label %21

19:                                               ; preds = %11
  %20 = load ptr, ptr %4, align 8
  call void @_ZN14ClassPrelinker16add_one_vm_classEP13InstanceKlass(ptr noundef %20)
  br label %21

21:                                               ; preds = %19, %11
  %22 = load ptr, ptr %2, align 8
  %23 = call noundef ptr @_ZNK13InstanceKlass16local_interfacesEv(ptr noundef nonnull align 8 dereferenceable(464) %22)
  store ptr %23, ptr %5, align 8
  store i32 0, ptr %6, align 4
  br label %24

24:                                               ; preds = %33, %21
  %25 = load i32, ptr %6, align 4
  %26 = load ptr, ptr %5, align 8
  %27 = call noundef i32 @_ZNK5ArrayIP13InstanceKlassE6lengthEv(ptr noundef nonnull align 8 dereferenceable(16) %26)
  %28 = icmp slt i32 %25, %27
  br i1 %28, label %29, label %36

29:                                               ; preds = %24
  %30 = load ptr, ptr %5, align 8
  %31 = load i32, ptr %6, align 4
  %32 = call noundef ptr @_ZNK5ArrayIP13InstanceKlassE2atEi(ptr noundef nonnull align 8 dereferenceable(16) %30, i32 noundef %31)
  call void @_ZN14ClassPrelinker16add_one_vm_classEP13InstanceKlass(ptr noundef %32)
  br label %33

33:                                               ; preds = %29
  %34 = load i32, ptr %6, align 4
  %35 = add nsw i32 %34, 1
  store i32 %35, ptr %6, align 4
  br label %24, !llvm.loop !6

36:                                               ; preds = %24
  br label %37

37:                                               ; preds = %36, %1
  ret void
}