; Function Attrs: mustprogress nounwind uwtable
define hidden void @_ZN14ClassPrelinker16add_one_vm_classEP13InstanceKlass(ptr noundef %0) local_unnamed_addr #1 align 2 {
  %2 = load ptr, ptr @_ZN14ClassPrelinker11_vm_classesE, align 8
  %3 = ptrtoint ptr %0 to i64
  %4 = trunc i64 %3 to i32
  %5 = lshr i32 %4, 3
  %6 = xor i32 %5, %4
  %7 = urem i32 %6, 15889
  %8 = zext nneg i32 %7 to i64
  %9 = getelementptr inbounds ptr, ptr %2, i64 %8
  %10 = load ptr, ptr %9, align 8
  %.not11.i.i = icmp eq ptr %10, null
  br i1 %.not11.i.i, label %_ZN21ResourceHashtableBaseI29FixedResourceHashtableStorageILj15889EP13InstanceKlassbES2_bLN6AnyObj15allocation_typeE2EL8MEMFLAGS13EXadL_Z14primitive_hashIS2_EjRKT_EEXadL_Z16primitive_equalsIS2_EbSA_SA_EEE11lookup_nodeEjRKS2_.exit.thread.i, label %.lr.ph.i.i

.lr.ph.i.i:                                       ; preds = %1, %17
  %.pr.i = phi ptr [ %19, %17 ], [ %10, %1 ]
  %11 = load i32, ptr %.pr.i, align 8
  %12 = icmp eq i32 %11, %6
  br i1 %12, label %13, label %17

13:                                               ; preds = %.lr.ph.i.i
  %14 = getelementptr inbounds i8, ptr %.pr.i, i64 8
  %15 = load ptr, ptr %14, align 8
  %16 = icmp eq ptr %15, %0
  br i1 %16, label %_ZN21ResourceHashtableBaseI29FixedResourceHashtableStorageILj15889EP13InstanceKlassbES2_bLN6AnyObj15allocation_typeE2EL8MEMFLAGS13EXadL_Z14primitive_hashIS2_EjRKT_EEXadL_Z16primitive_equalsIS2_EbSA_SA_EEE13put_if_absentERKS2_Pb.exit, label %17

17:                                               ; preds = %13, %.lr.ph.i.i
  %18 = getelementptr inbounds i8, ptr %.pr.i, i64 24
  %19 = load ptr, ptr %18, align 8
  %.not.i.i = icmp eq ptr %19, null
  br i1 %.not.i.i, label %_ZN21ResourceHashtableBaseI29FixedResourceHashtableStorageILj15889EP13InstanceKlassbES2_bLN6AnyObj15allocation_typeE2EL8MEMFLAGS13EXadL_Z14primitive_hashIS2_EjRKT_EEXadL_Z16primitive_equalsIS2_EbSA_SA_EEE11lookup_nodeEjRKS2_.exit.thread.i.loopexit, label %.lr.ph.i.i, !llvm.loop !6

_ZN21ResourceHashtableBaseI29FixedResourceHashtableStorageILj15889EP13InstanceKlassbES2_bLN6AnyObj15allocation_typeE2EL8MEMFLAGS13EXadL_Z14primitive_hashIS2_EjRKT_EEXadL_Z16primitive_equalsIS2_EbSA_SA_EEE11lookup_nodeEjRKS2_.exit.thread.i.loopexit: ; preds = %17
  %20 = getelementptr inbounds i8, ptr %.pr.i, i64 24
  br label %_ZN21ResourceHashtableBaseI29FixedResourceHashtableStorageILj15889EP13InstanceKlassbES2_bLN6AnyObj15allocation_typeE2EL8MEMFLAGS13EXadL_Z14primitive_hashIS2_EjRKT_EEXadL_Z16primitive_equalsIS2_EbSA_SA_EEE11lookup_nodeEjRKS2_.exit.thread.i

_ZN21ResourceHashtableBaseI29FixedResourceHashtableStorageILj15889EP13InstanceKlassbES2_bLN6AnyObj15allocation_typeE2EL8MEMFLAGS13EXadL_Z14primitive_hashIS2_EjRKT_EEXadL_Z16primitive_equalsIS2_EbSA_SA_EEE11lookup_nodeEjRKS2_.exit.thread.i: ; preds = %_ZN21ResourceHashtableBaseI29FixedResourceHashtableStorageILj15889EP13InstanceKlassbES2_bLN6AnyObj15allocation_typeE2EL8MEMFLAGS13EXadL_Z14primitive_hashIS2_EjRKT_EEXadL_Z16primitive_equalsIS2_EbSA_SA_EEE11lookup_nodeEjRKS2_.exit.thread.i.loopexit, %1
  %.0.lcssa.i11.i = phi ptr [ %9, %1 ], [ %20, %_ZN21ResourceHashtableBaseI29FixedResourceHashtableStorageILj15889EP13InstanceKlassbES2_bLN6AnyObj15allocation_typeE2EL8MEMFLAGS13EXadL_Z14primitive_hashIS2_EjRKT_EEXadL_Z16primitive_equalsIS2_EbSA_SA_EEE11lookup_nodeEjRKS2_.exit.thread.i.loopexit ]
  %21 = tail call noundef ptr @_ZN6AnyObjnwEm8MEMFLAGS(i64 noundef 32, i8 noundef zeroext 13) #10
  %22 = icmp eq ptr %21, null
  br i1 %22, label %27, label %23

23:                                               ; preds = %_ZN21ResourceHashtableBaseI29FixedResourceHashtableStorageILj15889EP13InstanceKlassbES2_bLN6AnyObj15allocation_typeE2EL8MEMFLAGS13EXadL_Z14primitive_hashIS2_EjRKT_EEXadL_Z16primitive_equalsIS2_EbSA_SA_EEE11lookup_nodeEjRKS2_.exit.thread.i
  store i32 %6, ptr %21, align 8
  %24 = getelementptr inbounds i8, ptr %21, i64 8
  store ptr %0, ptr %24, align 8
  %25 = getelementptr inbounds i8, ptr %21, i64 16
  store i8 0, ptr %25, align 8
  %26 = getelementptr inbounds i8, ptr %21, i64 24
  store ptr null, ptr %26, align 8
  br label %27

27:                                               ; preds = %_ZN21ResourceHashtableBaseI29FixedResourceHashtableStorageILj15889EP13InstanceKlassbES2_bLN6AnyObj15allocation_typeE2EL8MEMFLAGS13EXadL_Z14primitive_hashIS2_EjRKT_EEXadL_Z16primitive_equalsIS2_EbSA_SA_EEE11lookup_nodeEjRKS2_.exit.thread.i, %23
  store ptr %21, ptr %.0.lcssa.i11.i, align 8
  %28 = getelementptr inbounds i8, ptr %2, i64 127112
  %29 = load i32, ptr %28, align 8
  %30 = add nsw i32 %29, 1
  store i32 %30, ptr %28, align 8
  %31 = load ptr, ptr %0, align 8
  %32 = getelementptr inbounds i8, ptr %31, i64 120
  %33 = load ptr, ptr %32, align 8
  %34 = tail call noundef ptr %33(ptr noundef nonnull align 8 dereferenceable(464) %0) #10
  %.not = icmp eq ptr %34, null
  br i1 %.not, label %36, label %35

35:                                               ; preds = %27
  tail call void @_ZN14ClassPrelinker16add_one_vm_classEP13InstanceKlass(ptr noundef nonnull %34)
  br label %36

36:                                               ; preds = %35, %27
  %37 = getelementptr inbounds i8, ptr %0, i64 416
  %38 = load ptr, ptr %37, align 8
  %39 = load i32, ptr %38, align 8
  %40 = icmp sgt i32 %39, 0
  br i1 %40, label %.lr.ph, label %_ZN21ResourceHashtableBaseI29FixedResourceHashtableStorageILj15889EP13InstanceKlassbES2_bLN6AnyObj15allocation_typeE2EL8MEMFLAGS13EXadL_Z14primitive_hashIS2_EjRKT_EEXadL_Z16primitive_equalsIS2_EbSA_SA_EEE13put_if_absentERKS2_Pb.exit

.lr.ph:                                           ; preds = %36
  %41 = getelementptr inbounds i8, ptr %38, i64 8
  br label %42

42:                                               ; preds = %.lr.ph, %42
  %indvars.iv = phi i64 [ 0, %.lr.ph ], [ %indvars.iv.next, %42 ]
  %43 = getelementptr inbounds ptr, ptr %41, i64 %indvars.iv
  %44 = load ptr, ptr %43, align 8
  tail call void @_ZN14ClassPrelinker16add_one_vm_classEP13InstanceKlass(ptr noundef %44)
  %indvars.iv.next = add nuw nsw i64 %indvars.iv, 1
  %45 = load i32, ptr %38, align 8
  %46 = sext i32 %45 to i64
  %47 = icmp slt i64 %indvars.iv.next, %46
  br i1 %47, label %42, label %_ZN21ResourceHashtableBaseI29FixedResourceHashtableStorageILj15889EP13InstanceKlassbES2_bLN6AnyObj15allocation_typeE2EL8MEMFLAGS13EXadL_Z14primitive_hashIS2_EjRKT_EEXadL_Z16primitive_equalsIS2_EbSA_SA_EEE13put_if_absentERKS2_Pb.exit, !llvm.loop !8

_ZN21ResourceHashtableBaseI29FixedResourceHashtableStorageILj15889EP13InstanceKlassbES2_bLN6AnyObj15allocation_typeE2EL8MEMFLAGS13EXadL_Z14primitive_hashIS2_EjRKT_EEXadL_Z16primitive_equalsIS2_EbSA_SA_EEE13put_if_absentERKS2_Pb.exit: ; preds = %13, %42, %36
  ret void
}